; Function Attrs: nounwind uwtable
define ptr @l_Lake_Backend_ofString_x3f___boxed(ptr noundef %0) local_unnamed_addr #1 {
  %2 = load ptr, ptr @l_Lake_Backend_ofString_x3f___closed__1, align 8, !tbaa !10
  %3 = icmp eq ptr %0, %2
  br i1 %3, label %lean_string_dec_eq.exit.thread19.i, label %4

4:                                                ; preds = %1
  %5 = getelementptr i8, ptr %0, i64 8
  %.val.i.i.i = load i64, ptr %5, align 8, !tbaa !16
  %6 = getelementptr i8, ptr %2, i64 8
  %.val7.i.i.i = load i64, ptr %6, align 8, !tbaa !16
  %7 = icmp eq i64 %.val.i.i.i, %.val7.i.i.i
  br i1 %7, label %lean_string_dec_eq.exit.i, label %lean_string_dec_eq.exit.thread.i

lean_string_dec_eq.exit.i:                        ; preds = %4
  %8 = tail call zeroext i1 @lean_string_eq_cold(ptr noundef nonnull %0, ptr noundef nonnull %2) #8
  br i1 %8, label %lean_string_dec_eq.exit.thread19.i, label %lean_string_dec_eq.exit.thread.i

lean_string_dec_eq.exit.thread.i:                 ; preds = %lean_string_dec_eq.exit.i, %4
  %9 = load ptr, ptr @l_Lake_Backend_ofString_x3f___closed__2, align 8, !tbaa !10
  %10 = icmp eq ptr %0, %9
  br i1 %10, label %lean_string_dec_eq.exit15.thread20.i, label %11

11:                                               ; preds = %lean_string_dec_eq.exit.thread.i
  %.val.i.i13.i = load i64, ptr %5, align 8, !tbaa !16
  %12 = getelementptr i8, ptr %9, i64 8
  %.val7.i.i14.i = load i64, ptr %12, align 8, !tbaa !16
  %13 = icmp eq i64 %.val.i.i13.i, %.val7.i.i14.i
  br i1 %13, label %lean_string_dec_eq.exit15.i, label %lean_string_dec_eq.exit15.thread.i

lean_string_dec_eq.exit15.i:                      ; preds = %11
  %14 = tail call zeroext i1 @lean_string_eq_cold(ptr noundef nonnull %0, ptr noundef nonnull %9) #8
  br i1 %14, label %lean_string_dec_eq.exit15.thread20.i, label %lean_string_dec_eq.exit15.thread.i

lean_string_dec_eq.exit15.thread.i:               ; preds = %lean_string_dec_eq.exit15.i, %11
  %15 = load ptr, ptr @l_Lake_Backend_ofString_x3f___closed__3, align 8, !tbaa !10
  %16 = icmp eq ptr %0, %15
  br i1 %16, label %lean_string_dec_eq.exit18.thread21.i, label %17

17:                                               ; preds = %lean_string_dec_eq.exit15.thread.i
  %.val.i.i16.i = load i64, ptr %5, align 8, !tbaa !16
  %18 = getelementptr i8, ptr %15, i64 8
  %.val7.i.i17.i = load i64, ptr %18, align 8, !tbaa !16
  %19 = icmp eq i64 %.val.i.i16.i, %.val7.i.i17.i
  br i1 %19, label %lean_string_dec_eq.exit18.i, label %l_Lake_Backend_ofString_x3f.exit

lean_string_dec_eq.exit18.i:                      ; preds = %17
  %20 = tail call zeroext i1 @lean_string_eq_cold(ptr noundef nonnull %0, ptr noundef nonnull %15) #8
  br i1 %20, label %lean_string_dec_eq.exit18.thread21.i, label %l_Lake_Backend_ofString_x3f.exit

lean_string_dec_eq.exit18.thread21.i:             ; preds = %lean_string_dec_eq.exit18.i, %lean_string_dec_eq.exit15.thread.i
  %21 = load ptr, ptr @l_Lake_Backend_ofString_x3f___closed__4, align 8, !tbaa !10
  br label %l_Lake_Backend_ofString_x3f.exit

lean_string_dec_eq.exit15.thread20.i:             ; preds = %lean_string_dec_eq.exit15.i, %lean_string_dec_eq.exit.thread.i
  %22 = load ptr, ptr @l_Lake_Backend_ofString_x3f___closed__5, align 8, !tbaa !10
  br label %l_Lake_Backend_ofString_x3f.exit

lean_string_dec_eq.exit.thread19.i:               ; preds = %lean_string_dec_eq.exit.i, %1
  %23 = load ptr, ptr @l_Lake_Backend_ofString_x3f___closed__6, align 8, !tbaa !10
  br label %l_Lake_Backend_ofString_x3f.exit

l_Lake_Backend_ofString_x3f.exit:                 ; preds = %17, %lean_string_dec_eq.exit18.i, %lean_string_dec_eq.exit18.thread21.i, %lean_string_dec_eq.exit15.thread20.i, %lean_string_dec_eq.exit.thread19.i
  %.2.i = phi ptr [ %23, %lean_string_dec_eq.exit.thread19.i ], [ %22, %lean_string_dec_eq.exit15.thread20.i ], [ %21, %lean_string_dec_eq.exit18.thread21.i ], [ inttoptr (i64 1 to ptr), %lean_string_dec_eq.exit18.i ], [ inttoptr (i64 1 to ptr), %17 ]
  %24 = ptrtoint ptr %0 to i64
  %25 = and i64 %24, 1
  %.not = icmp eq i64 %25, 0
  br i1 %.not, label %26, label %lean_dec.exit

26:                                               ; preds = %l_Lake_Backend_ofString_x3f.exit
  %27 = load i32, ptr %0, align 4, !tbaa !4
  %28 = icmp sgt i32 %27, 1
  br i1 %28, label %29, label %31, !prof !9

29:                                               ; preds = %26
  %30 = add nsw i32 %27, -1
  store i32 %30, ptr %0, align 4, !tbaa !4
  br label %lean_dec.exit

31:                                               ; preds = %26
  %.not.i = icmp eq i32 %27, 0
  br i1 %.not.i, label %lean_dec.exit, label %32

32:                                               ; preds = %31
  tail call void @lean_dec_ref_cold(ptr noundef nonnull %0) #8
  br label %lean_dec.exit

lean_dec.exit:                                    ; preds = %32, %31, %29, %l_Lake_Backend_ofString_x3f.exit
  ret ptr %.2.i
}